; Function Attrs: nounwind uwtable
define ptr @l_Lean_MVarId_eqOfHEq(ptr noundef %0, ptr noundef %1, ptr noundef %2, ptr noundef %3, ptr noundef %4, ptr noundef %5) local_unnamed_addr #0 {
  %7 = ptrtoint ptr %0 to i64
  %8 = and i64 %7, 1
  %.not = icmp eq i64 %8, 0
  br i1 %.not, label %9, label %lean_inc.exit16

9:                                                ; preds = %6
  %.val.i = load i32, ptr %0, align 4, !tbaa !4
  %10 = icmp sgt i32 %.val.i, 0
  br i1 %10, label %11, label %13, !prof !9

11:                                               ; preds = %9
  %12 = add nuw i32 %.val.i, 1
  store i32 %12, ptr %0, align 4, !tbaa !4
  br label %lean_inc.exit16

13:                                               ; preds = %9
  %.not.i = icmp eq i32 %.val.i, 0
  br i1 %.not.i, label %lean_inc.exit16, label %14

14:                                               ; preds = %13
  tail call void @lean_inc_ref_cold(ptr noundef nonnull %0) #4
  br label %lean_inc.exit16

lean_inc.exit16:                                  ; preds = %14, %13, %11, %6
  tail call void @lean_inc_heartbeat() #4
  %15 = tail call noalias ptr @mi_malloc_small(i64 noundef 32) #4
  %16 = icmp eq ptr %15, null
  br i1 %16, label %17, label %lean_alloc_closure.exit

17:                                               ; preds = %lean_inc.exit16
  tail call void @lean_internal_panic_out_of_memory() #5
  unreachable

lean_alloc_closure.exit:                          ; preds = %lean_inc.exit16
  %18 = getelementptr inbounds nuw i8, ptr %15, i64 4
  store i32 1, ptr %15, align 4, !tbaa !4
  store i32 -184549344, ptr %18, align 4
  %19 = getelementptr inbounds nuw i8, ptr %15, i64 8
  store ptr @l_Lean_MVarId_eqOfHEq___lambda__1, ptr %19, align 8, !tbaa !10
  %20 = getelementptr inbounds nuw i8, ptr %15, i64 16
  store i16 6, ptr %20, align 8, !tbaa !15
  %21 = getelementptr inbounds nuw i8, ptr %15, i64 18
  store i16 1, ptr %21, align 2, !tbaa !15
  %22 = getelementptr inbounds nuw i8, ptr %15, i64 24
  store ptr %0, ptr %22, align 8, !tbaa !10
  br i1 %.not, label %23, label %lean_inc.exit

23:                                               ; preds = %lean_alloc_closure.exit
  %.val.i17 = load i32, ptr %0, align 4, !tbaa !4
  %24 = icmp sgt i32 %.val.i17, 0
  br i1 %24, label %25, label %27, !prof !9

25:                                               ; preds = %23
  %26 = add nuw i32 %.val.i17, 1
  store i32 %26, ptr %0, align 4, !tbaa !4
  br label %lean_inc.exit

27:                                               ; preds = %23
  %.not.i18 = icmp eq i32 %.val.i17, 0
  br i1 %.not.i18, label %lean_inc.exit, label %28

28:                                               ; preds = %27
  tail call void @lean_inc_ref_cold(ptr noundef nonnull %0) #4
  br label %lean_inc.exit

lean_inc.exit:                                    ; preds = %28, %27, %25, %lean_alloc_closure.exit
  tail call void @lean_inc_heartbeat() #4
  %29 = tail call noalias ptr @mi_malloc_small(i64 noundef 40) #4
  %30 = icmp eq ptr %29, null
  br i1 %30, label %31, label %lean_alloc_closure.exit20

31:                                               ; preds = %lean_inc.exit
  tail call void @lean_internal_panic_out_of_memory() #5
  unreachable

lean_alloc_closure.exit20:                        ; preds = %lean_inc.exit
  %32 = getelementptr inbounds nuw i8, ptr %29, i64 4
  store i32 1, ptr %29, align 4, !tbaa !4
  store i32 -184549336, ptr %32, align 4
  %33 = getelementptr inbounds nuw i8, ptr %29, i64 8
  store ptr @l_Lean_MVarId_heqOfEq___lambda__2, ptr %33, align 8, !tbaa !10
  %34 = getelementptr inbounds nuw i8, ptr %29, i64 16
  store i16 7, ptr %34, align 8, !tbaa !15
  %35 = getelementptr inbounds nuw i8, ptr %29, i64 18
  store i16 2, ptr %35, align 2, !tbaa !15
  %36 = getelementptr inbounds nuw i8, ptr %29, i64 24
  store ptr %15, ptr %36, align 8, !tbaa !10
  %37 = getelementptr inbounds nuw i8, ptr %29, i64 32
  store ptr %0, ptr %37, align 8, !tbaa !10
  %38 = tail call ptr @l_Lean_MVarId_withContext___at___private_Lean_Meta_SynthInstance_0__Lean_Meta_synthPendingImp___spec__2___rarg(ptr noundef %0, ptr noundef nonnull %29, ptr noundef %1, ptr noundef %2, ptr noundef %3, ptr noundef %4, ptr noundef %5) #4
  ret ptr %38
}